; Function Attrs: nounwind uwtable
define dso_local void @add_index_stringl(ptr noundef readonly captures(none) %0, i64 noundef %1, ptr noundef readonly captures(none) %2, i64 noundef %3) local_unnamed_addr #2 {
zend_string_alloc.exit:
  %4 = alloca %struct._zval_struct, align 8
  call void @llvm.lifetime.start.p0(i64 16, ptr nonnull %4) #34
  %5 = and i64 %3, -8
  %6 = add i64 %5, 32
  %7 = tail call noalias ptr @_emalloc(i64 noundef %6) #37
  store i32 1, ptr %7, align 4, !tbaa !43
  %8 = getelementptr inbounds nuw i8, ptr %7, i64 4
  store i32 22, ptr %8, align 4, !tbaa !42
  %9 = getelementptr inbounds nuw i8, ptr %7, i64 8
  store i64 0, ptr %9, align 8, !tbaa !155
  %10 = getelementptr inbounds nuw i8, ptr %7, i64 16
  store i64 %3, ptr %10, align 8, !tbaa !96
  %11 = getelementptr inbounds nuw i8, ptr %7, i64 24
  tail call void @llvm.memcpy.p0.p0.i64(ptr nonnull align 8 %11, ptr align 1 %2, i64 %3, i1 false)
  %12 = getelementptr inbounds nuw [1 x i8], ptr %11, i64 0, i64 %3
  store i8 0, ptr %12, align 1, !tbaa !42
  store ptr %7, ptr %4, align 8, !tbaa !42
  %13 = getelementptr inbounds nuw i8, ptr %4, i64 8
  store i32 262, ptr %13, align 8, !tbaa !42
  %14 = load ptr, ptr %0, align 8, !tbaa !42
  %15 = call ptr @zend_hash_index_update(ptr noundef %14, i64 noundef %1, ptr noundef nonnull %4) #34
  call void @llvm.lifetime.end.p0(i64 16, ptr nonnull %4) #34
  ret void
}